; Function Attrs: mustprogress uwtable
define void @_ZN2cv3ccm20ColorCorrectionModel13setColorSpaceENS0_11COLOR_SPACEE(ptr noundef nonnull readonly align 8 captures(none) dereferenceable(16) %0, i32 noundef %1) local_unnamed_addr #0 align 2 personality ptr @__gxx_personality_v0 {
  %3 = alloca %"class.std::shared_ptr.3", align 8
  call void @llvm.lifetime.start.p0(i64 16, ptr nonnull %3) #21
  %4 = tail call noundef nonnull align 8 dereferenceable(48) ptr @_ZN2cv3ccm5GetCS11getInstanceEv()
  call void @_ZN2cv3ccm5GetCS7get_rgbENS0_11COLOR_SPACEE(ptr dead_on_unwind nonnull writable sret(%"class.std::shared_ptr.3") align 8 %3, ptr noundef nonnull align 8 dereferenceable(48) %4, i32 noundef %1)
  %5 = load ptr, ptr %3, align 8, !tbaa !22
  %6 = load ptr, ptr %0, align 8, !tbaa !176
  %7 = getelementptr inbounds nuw i8, ptr %6, i64 208
  %8 = load ptr, ptr %7, align 8, !tbaa !98
  %9 = getelementptr inbounds nuw i8, ptr %8, i64 16
  %10 = getelementptr inbounds nuw i8, ptr %5, i64 16
  invoke void @_ZNSt7__cxx1112basic_stringIcSt11char_traitsIcESaIcEE9_M_assignERKS4_(ptr noundef nonnull align 8 dereferenceable(32) %9, ptr noundef nonnull align 8 dereferenceable(32) %10)
          to label %.noexc unwind label %57

.noexc:                                           ; preds = %2
  %11 = getelementptr inbounds nuw i8, ptr %8, i64 48
  %12 = getelementptr inbounds nuw i8, ptr %5, i64 48
  invoke void @_ZNSt7__cxx1112basic_stringIcSt11char_traitsIcESaIcEE9_M_assignERKS4_(ptr noundef nonnull align 8 dereferenceable(32) %11, ptr noundef nonnull align 8 dereferenceable(32) %12)
          to label %.noexc3 unwind label %57

.noexc3:                                          ; preds = %.noexc
  %13 = getelementptr inbounds nuw i8, ptr %8, i64 80
  %14 = getelementptr inbounds nuw i8, ptr %5, i64 80
  invoke void @_ZNSt7__cxx1112basic_stringIcSt11char_traitsIcESaIcEE9_M_assignERKS4_(ptr noundef nonnull align 8 dereferenceable(32) %13, ptr noundef nonnull align 8 dereferenceable(32) %14)
          to label %.noexc4 unwind label %57

.noexc4:                                          ; preds = %.noexc3
  %15 = getelementptr inbounds nuw i8, ptr %5, i64 112
  %16 = load i8, ptr %15, align 8, !tbaa !194, !range !195, !noundef !196
  %17 = getelementptr inbounds nuw i8, ptr %8, i64 112
  store i8 %16, ptr %17, align 8, !tbaa !194
  %18 = getelementptr inbounds nuw i8, ptr %8, i64 128
  %19 = getelementptr inbounds nuw i8, ptr %5, i64 128
  %20 = invoke noundef nonnull align 8 dereferenceable(24) ptr @_ZNSt6vectorIN2cv3ccm9OperationESaIS2_EEaSERKS4_(ptr noundef nonnull align 8 dereferenceable(24) %18, ptr noundef nonnull align 8 dereferenceable(24) %19)
          to label %.noexc5 unwind label %57

.noexc5:                                          ; preds = %.noexc4
  %21 = getelementptr inbounds nuw i8, ptr %8, i64 160
  %22 = getelementptr inbounds nuw i8, ptr %5, i64 160
  %23 = invoke noundef nonnull align 8 dereferenceable(24) ptr @_ZNSt6vectorIN2cv3ccm9OperationESaIS2_EEaSERKS4_(ptr noundef nonnull align 8 dereferenceable(24) %21, ptr noundef nonnull align 8 dereferenceable(24) %22)
          to label %.noexc6 unwind label %57

.noexc6:                                          ; preds = %.noexc5
  %24 = getelementptr inbounds nuw i8, ptr %8, i64 184
  %25 = getelementptr inbounds nuw i8, ptr %5, i64 184
  call void @llvm.memcpy.p0.p0.i64(ptr noundef nonnull align 8 dereferenceable(16) %24, ptr noundef nonnull align 8 dereferenceable(16) %25, i64 16, i1 false)
  %26 = getelementptr inbounds nuw i8, ptr %8, i64 200
  %27 = getelementptr inbounds nuw i8, ptr %5, i64 200
  call void @llvm.memcpy.p0.p0.i64(ptr noundef nonnull align 8 dereferenceable(48) %26, ptr noundef nonnull align 8 dereferenceable(48) %27, i64 48, i1 false)
  %28 = getelementptr inbounds nuw i8, ptr %8, i64 248
  %29 = getelementptr inbounds nuw i8, ptr %5, i64 248
  %30 = invoke noundef nonnull align 8 dereferenceable(96) ptr @_ZN2cv3MataSERKS0_(ptr noundef nonnull align 8 dereferenceable(96) %28, ptr noundef nonnull align 8 dereferenceable(96) %29)
          to label %.noexc7 unwind label %57

.noexc7:                                          ; preds = %.noexc6
  %31 = getelementptr inbounds nuw i8, ptr %8, i64 344
  %32 = getelementptr inbounds nuw i8, ptr %5, i64 344
  %33 = invoke noundef nonnull align 8 dereferenceable(96) ptr @_ZN2cv3MataSERKS0_(ptr noundef nonnull align 8 dereferenceable(96) %31, ptr noundef nonnull align 8 dereferenceable(96) %32)
          to label %_ZN2cv3ccm8RGBBase_aSERKS1_.exit unwind label %57

_ZN2cv3ccm8RGBBase_aSERKS1_.exit:                 ; preds = %.noexc7
  %34 = getelementptr inbounds nuw i8, ptr %3, i64 8
  %35 = load ptr, ptr %34, align 8, !tbaa !20
  %.not.i.i = icmp eq ptr %35, null
  br i1 %.not.i.i, label %_ZNSt12__shared_ptrIN2cv3ccm8RGBBase_ELN9__gnu_cxx12_Lock_policyE2EED2Ev.exit, label %36

36:                                               ; preds = %_ZN2cv3ccm8RGBBase_aSERKS1_.exit
  %37 = getelementptr inbounds nuw i8, ptr %35, i64 8
  %38 = load atomic i64, ptr %37 acquire, align 8
  %39 = icmp eq i64 %38, 4294967297
  %40 = trunc i64 %38 to i32
  br i1 %39, label %41, label %49

41:                                               ; preds = %36
  store i32 0, ptr %37, align 8, !tbaa !14
  %42 = getelementptr inbounds nuw i8, ptr %35, i64 12
  store i32 0, ptr %42, align 4, !tbaa !17
  %43 = load ptr, ptr %35, align 8, !tbaa !18
  %44 = getelementptr inbounds nuw i8, ptr %43, i64 16
  %45 = load ptr, ptr %44, align 8
  call void %45(ptr noundef nonnull align 8 dereferenceable(16) %35) #21
  %46 = load ptr, ptr %35, align 8, !tbaa !18
  %47 = getelementptr inbounds nuw i8, ptr %46, i64 24
  %48 = load ptr, ptr %47, align 8
  call void %48(ptr noundef nonnull align 8 dereferenceable(16) %35) #21
  br label %_ZNSt12__shared_ptrIN2cv3ccm8RGBBase_ELN9__gnu_cxx12_Lock_policyE2EED2Ev.exit

49:                                               ; preds = %36
  %50 = load i8, ptr @__libc_single_threaded, align 1, !tbaa !25
  %.not.i.i.i = icmp eq i8 %50, 0
  br i1 %.not.i.i.i, label %53, label %51

51:                                               ; preds = %49
  %52 = add nsw i32 %40, -1
  store i32 %52, ptr %37, align 4, !tbaa !26
  br label %_ZN9__gnu_cxx27__exchange_and_add_dispatchEPii.exit.i.i.i

53:                                               ; preds = %49
  %54 = atomicrmw volatile add ptr %37, i32 -1 acq_rel, align 4
  br label %_ZN9__gnu_cxx27__exchange_and_add_dispatchEPii.exit.i.i.i

_ZN9__gnu_cxx27__exchange_and_add_dispatchEPii.exit.i.i.i: ; preds = %53, %51
  %.0.i.i.i.i = phi i32 [ %40, %51 ], [ %54, %53 ]
  %55 = icmp eq i32 %.0.i.i.i.i, 1
  br i1 %55, label %56, label %_ZNSt12__shared_ptrIN2cv3ccm8RGBBase_ELN9__gnu_cxx12_Lock_policyE2EED2Ev.exit, !prof !27

56:                                               ; preds = %_ZN9__gnu_cxx27__exchange_and_add_dispatchEPii.exit.i.i.i
  call void @_ZNSt16_Sp_counted_baseILN9__gnu_cxx12_Lock_policyE2EE24_M_release_last_use_coldEv(ptr noundef nonnull align 8 dereferenceable(16) %35) #21
  br label %_ZNSt12__shared_ptrIN2cv3ccm8RGBBase_ELN9__gnu_cxx12_Lock_policyE2EED2Ev.exit

_ZNSt12__shared_ptrIN2cv3ccm8RGBBase_ELN9__gnu_cxx12_Lock_policyE2EED2Ev.exit: ; preds = %_ZN2cv3ccm8RGBBase_aSERKS1_.exit, %41, %_ZN9__gnu_cxx27__exchange_and_add_dispatchEPii.exit.i.i.i, %56
  call void @llvm.lifetime.end.p0(i64 16, ptr nonnull %3) #21
  ret void

57:                                               ; preds = %.noexc7, %.noexc6, %.noexc5, %.noexc4, %.noexc3, %.noexc, %2
  %58 = landingpad { ptr, i32 }
          cleanup
  call void @_ZNSt12__shared_ptrIN2cv3ccm8RGBBase_ELN9__gnu_cxx12_Lock_policyE2EED2Ev(ptr noundef nonnull align 8 dereferenceable(16) %3) #21
  call void @llvm.lifetime.end.p0(i64 16, ptr nonnull %3) #21
  resume { ptr, i32 } %58
}